Certificate:
    Data:
        Version: 3 (0x2)
        Serial Number: 1 (0x1)
    Signature Algorithm: sha256WithRSAEncryption
        Issuer: C=FR, ST=Radius, L=Somewhere, O=Example Inc./emailAddress=admin@example.org, CN=Example Certificate Authority
        Validity
            Not Before: Jun 20 06:47:57 2018 GMT
            Not After : Aug 19 06:47:57 2018 GMT
        Subject: C=FR, ST=Radius, O=Example Inc., CN=Example Server Certificate/emailAddress=admin@example.org
        Subject Public Key Info:
            Public Key Algorithm: rsaEncryption
                Public-Key: (2048 bit)
                Modulus:
                    00:df:e7:12:b3:b7:8a:11:72:dd:e6:73:fe:90:1e:
                    52:ee:40:00:0d:8e:d4:b6:16:0f:7a:a7:a5:c4:75:
                    92:17:ae:5d:06:2f:7f:d2:bb:32:4d:ba:18:66:22:
                    07:b9:77:5a:87:2d:f4:6f:35:c1:ae:f8:ab:99:0f:
                    a9:14:b8:01:e0:59:44:89:7a:ac:36:b1:b2:aa:37:
                    82:e7:a2:45:82:6c:be:dd:01:1d:45:a9:d6:08:72:
                    0c:f3:df:77:26:4b:ef:fa:61:c2:bc:a5:4a:c6:3e:
                    82:a2:b6:d5:4e:89:06:ea:ec:e2:74:50:e1:35:4d:
                    db:22:7e:6f:63:8f:5b:04:b4:f6:ce:49:f7:d3:15:
                    04:a4:85:0d:02:99:5d:e8:72:cc:d3:86:21:e9:8d:
                    ab:5c:42:c4:c3:64:05:1e:fe:4d:23:89:e2:27:5f:
                    ff:bb:6c:59:4d:c1:0e:f2:51:f6:74:58:92:b4:70:
                    0b:a4:d0:d4:52:50:2c:aa:92:62:c9:c8:3a:5b:7c:
                    86:bc:e5:63:5a:4f:8d:33:9c:54:4a:99:24:99:c9:
                    f7:9a:f4:d9:75:4a:52:2f:d3:14:f0:d4:b6:c1:a4:
                    9a:fb:2d:a5:4e:28:cf:c7:cc:c2:23:89:ca:f7:e0:
                    18:ab:24:f6:4d:7d:39:b6:aa:52:7c:a5:15:0b:59:
                    8f:99
                Exponent: 65537 (0x10001)
        X509v3 extensions:
            X509v3 Extended Key Usage: 
                TLS Web Server Authentication
            X509v3 CRL Distribution Points: 

                Full Name:
                  URI:http://www.example.com/example_ca.crl

    Signature Algorithm: sha256WithRSAEncryption
         62:b1:b2:30:69:4a:83:3e:cb:dc:84:67:ac:29:aa:a3:0d:6d:
         6b:82:78:05:29:63:d9:f5:3e:d0:66:87:26:65:28:2e:7c:5c:
         73:9d:1d:8f:b4:50:2c:26:8b:61:e5:4d:fd:0e:7e:2c:f0:8c:
         f8:b8:ca:23:80:7d:6c:0d:4a:cf:d7:40:8b:24:ea:72:5f:23:
         b6:a2:02:10:5f:40:60:6d:0b:0d:51:1e:6b:1a:bf:59:9e:b3:
         d1:74:55:a4:fd:f7:1b:82:3e:14:58:3e:3c:4a:68:53:b8:5c:
         2f:a8:ba:61:a7:9f:38:f0:a0:6e:32:95:56:2c:15:f4:98:c1:
         49:25:2b:99:7a:aa:7e:1e:fd:ac:57:9e:6d:02:49:39:4e:0d:
         d1:02:bf:57:4c:60:25:01:e2:32:37:b2:d9:16:99:f8:ab:0a:
         78:2f:ed:de:e2:78:6a:65:6c:cc:86:9a:ec:90:db:9a:90:a9:
         11:ca:f2:b0:25:00:e5:e6:77:bb:f5:b5:9f:5f:d1:c3:94:f2:
         dc:8f:f2:3c:27:8b:e4:df:4c:23:f7:a1:c5:fa:d2:8b:b5:97:
         1a:5e:f8:43:f7:6e:e7:f2:12:13:2a:ad:3f:b0:c9:fb:b8:99:
         3d:c3:0b:d2:a2:53:16:73:b8:a5:6c:ef:98:55:27:ab:8d:9c:
         24:53:fe:fa
-----BEGIN CERTIFICATE-----
MIID2jCCAsKgAwIBAgIBATANBgkqhkiG9w0BAQsFADCBkzELMAkGA1UEBhMCRlIx
DzANBgNVBAgMBlJhZGl1czESMBAGA1UEBwwJU29tZXdoZXJlMRUwEwYDVQQKDAxF
eGFtcGxlIEluYy4xIDAeBgkqhkiG9w0BCQEWEWFkbWluQGV4YW1wbGUub3JnMSYw
JAYDVQQDDB1FeGFtcGxlIENlcnRpZmljYXRlIEF1dGhvcml0eTAeFw0xODA2MjAw
NjQ3NTdaFw0xODA4MTkwNjQ3NTdaMHwxCzAJBgNVBAYTAkZSMQ8wDQYDVQQIDAZS
YWRpdXMxFTATBgNVBAoMDEV4YW1wbGUgSW5jLjEjMCEGA1UEAwwaRXhhbXBsZSBT
ZXJ2ZXIgQ2VydGlmaWNhdGUxIDAeBgkqhkiG9w0BCQEWEWFkbWluQGV4YW1wbGUu
b3JnMIIBIjANBgkqhkiG9w0BAQEFAAOCAQ8AMIIBCgKCAQEA3+cSs7eKEXLd5nP+
kB5S7kAADY7UthYPeqelxHWSF65dBi9/0rsyTboYZiIHuXdahy30bzXBrvirmQ+p
FLgB4FlEiXqsNrGyqjeC56JFgmy+3QEdRanWCHIM8993Jkvv+mHCvKVKxj6CorbV
TokG6uzidFDhNU3bIn5vY49bBLT2zkn30xUEpIUNApld6HLM04Yh6Y2rXELEw2QF
Hv5NI4niJ1//u2xZTcEO8lH2dFiStHALpNDUUlAsqpJiycg6W3yGvOVjWk+NM5xU
Spkkmcn3mvTZdUpSL9MU8NS2waSa+y2lTijPx8zCI4nK9+AYqyT2TX05tqpSfKUV
C1mPmQIDAQABo08wTTATBgNVHSUEDDAKBggrBgEFBQcDATA2BgNVHR8ELzAtMCug
KaAnhiVodHRwOi8vd3d3LmV4YW1wbGUuY29tL2V4YW1wbGVfY2EuY3JsMA0GCSqG
SIb3DQEBCwUAA4IBAQBisbIwaUqDPsvchGesKaqjDW1rgngFKWPZ9T7QZocmZSgu
fFxznR2PtFAsJoth5U39Dn4s8Iz4uMojgH1sDUrP10CLJOpyXyO2ogIQX0BgbQsN
UR5rGr9ZnrPRdFWk/fcbgj4UWD48SmhTuFwvqLphp5848KBuMpVWLBX0mMFJJSuZ
eqp+Hv2sV55tAkk5Tg3RAr9XTGAlAeIyN7LZFpn4qwp4L+3e4nhqZWzMhprskNua
kKkRyvKwJQDl5ne79bWfX9HDlPLcj/I8J4vk30wj96HF+tKLtZcaXvhD927n8hIT
Kq0/sMn7uJk9wwvSolMWc7ilbO+YVSerjZwkU/76
-----END CERTIFICATE-----
